target datalayout = "e-m:e-p270:32:32-p271:32:32-p272:64:64-i64:64-i128:128-f80:128-n8:16:32:64-S128"
target triple = "x86_64-pc-linux-gnu"

; Function Attrs: nounwind uwtable
define i32 @png_check_fp_number(ptr noundef %0, i64 noundef %1, ptr noundef %2, ptr noundef %3) #0 {
  %5 = alloca ptr, align 8
  %6 = alloca i64, align 8
  %7 = alloca ptr, align 8
  %8 = alloca ptr, align 8
  %9 = alloca i32, align 4
  %10 = alloca i64, align 8
  %11 = alloca i32, align 4
  store ptr %0, ptr %5, align 8
  store i64 %1, ptr %6, align 8
  store ptr %2, ptr %7, align 8
  store ptr %3, ptr %8, align 8
  %12 = load ptr, ptr %7, align 8
  %13 = load i32, ptr %12, align 4
  store i32 %13, ptr %9, align 4
  %14 = load ptr, ptr %8, align 8
  %15 = load i64, ptr %14, align 8
  store i64 %15, ptr %10, align 8
  br label %16

16:                                               ; preds = %117, %4
  %17 = load i64, ptr %10, align 8
  %18 = load i64, ptr %6, align 8
  %19 = icmp ult i64 %17, %18
  br i1 %19, label %20, label %120

20:                                               ; preds = %16
  %21 = load ptr, ptr %5, align 8
  %22 = load i64, ptr %10, align 8
  %23 = getelementptr inbounds i8, ptr %21, i64 %22
  %24 = load i8, ptr %23, align 1
  %25 = sext i8 %24 to i32
  switch i32 %25, label %32 [
    i32 43, label %26
    i32 45, label %27
    i32 46, label %28
    i32 48, label %29
    i32 49, label %30
    i32 50, label %30
    i32 51, label %30
    i32 52, label %30
    i32 53, label %30
    i32 54, label %30
    i32 55, label %30
    i32 56, label %30
    i32 57, label %30
    i32 69, label %31
    i32 101, label %31
  ]

26:                                               ; preds = %20
  store i32 4, ptr %11, align 4
  br label %33

27:                                               ; preds = %20
  store i32 132, ptr %11, align 4
  br label %33

28:                                               ; preds = %20
  store i32 16, ptr %11, align 4
  br label %33

29:                                               ; preds = %20
  store i32 8, ptr %11, align 4
  br label %33

30:                                               ; preds = %20, %20, %20, %20, %20, %20, %20, %20, %20
  store i32 264, ptr %11, align 4
  br label %33

31:                                               ; preds = %20, %20
  store i32 32, ptr %11, align 4
  br label %33

32:                                               ; preds = %20
  br label %121

33:                                               ; preds = %31, %30, %29, %28, %27, %26
  %34 = load i32, ptr %9, align 4
  %35 = and i32 %34, 3
  %36 = load i32, ptr %11, align 4
  %37 = and i32 %36, 60
  %38 = add nsw i32 %35, %37
  switch i32 %38, label %116 [
    i32 4, label %39
    i32 16, label %48
    i32 8, label %69
    i32 32, label %82
    i32 9, label %91
    i32 33, label %96
    i32 6, label %105
    i32 10, label %113
  ]

39:                                               ; preds = %33
  %40 = load i32, ptr %9, align 4
  %41 = and i32 %40, 60
  %42 = icmp ne i32 %41, 0
  br i1 %42, label %43, label %44

43:                                               ; preds = %39
  br label %121

44:                                               ; preds = %39
  %45 = load i32, ptr %11, align 4
  %46 = load i32, ptr %9, align 4
  %47 = or i32 %46, %45
  store i32 %47, ptr %9, align 4
  br label %117

48:                                               ; preds = %33
  %49 = load i32, ptr %9, align 4
  %50 = and i32 %49, 16
  %51 = icmp ne i32 %50, 0
  br i1 %51, label %52, label %53

52:                                               ; preds = %48
  br label %121

53:                                               ; preds = %48
  %54 = load i32, ptr %9, align 4
  %55 = and i32 %54, 8
  %56 = icmp ne i32 %55, 0
  br i1 %56, label %57, label %61

57:                                               ; preds = %53
  %58 = load i32, ptr %11, align 4
  %59 = load i32, ptr %9, align 4
  %60 = or i32 %59, %58
  store i32 %60, ptr %9, align 4
  br label %67

61:                                               ; preds = %53
  %62 = load i32, ptr %11, align 4
  %63 = or i32 1, %62
  %64 = load i32, ptr %9, align 4
  %65 = and i32 %64, 448
  %66 = or i32 %63, %65
  store i32 %66, ptr %9, align 4
  br label %67

67:                                               ; preds = %61, %57
  br label %68

68:                                               ; preds = %67
  br label %117

69:                                               ; preds = %33
  %70 = load i32, ptr %9, align 4
  %71 = and i32 %70, 16
  %72 = icmp ne i32 %71, 0
  br i1 %72, label %73, label %77

73:                                               ; preds = %69
  %74 = load i32, ptr %9, align 4
  %75 = and i32 %74, 448
  %76 = or i32 17, %75
  store i32 %76, ptr %9, align 4
  br label %77

77:                                               ; preds = %73, %69
  %78 = load i32, ptr %11, align 4
  %79 = or i32 %78, 64
  %80 = load i32, ptr %9, align 4
  %81 = or i32 %80, %79
  store i32 %81, ptr %9, align 4
  br label %117

82:                                               ; preds = %33
  %83 = load i32, ptr %9, align 4
  %84 = and i32 %83, 8
  %85 = icmp eq i32 %84, 0
  br i1 %85, label %86, label %87

86:                                               ; preds = %82
  br label %121

87:                                               ; preds = %82
  %88 = load i32, ptr %9, align 4
  %89 = and i32 %88, 448
  %90 = or i32 2, %89
  store i32 %90, ptr %9, align 4
  br label %117

91:                                               ; preds = %33
  %92 = load i32, ptr %11, align 4
  %93 = or i32 %92, 64
  %94 = load i32, ptr %9, align 4
  %95 = or i32 %94, %93
  store i32 %95, ptr %9, align 4
  br label %117

96:                                               ; preds = %33
  %97 = load i32, ptr %9, align 4
  %98 = and i32 %97, 8
  %99 = icmp eq i32 %98, 0
  br i1 %99, label %100, label %101

100:                                              ; preds = %96
  br label %121

101:                                              ; preds = %96
  %102 = load i32, ptr %9, align 4
  %103 = and i32 %102, 448
  %104 = or i32 2, %103
  store i32 %104, ptr %9, align 4
  br label %117

105:                                              ; preds = %33
  %106 = load i32, ptr %9, align 4
  %107 = and i32 %106, 60
  %108 = icmp ne i32 %107, 0
  br i1 %108, label %109, label %110

109:                                              ; preds = %105
  br label %121

110:                                              ; preds = %105
  %111 = load i32, ptr %9, align 4
  %112 = or i32 %111, 4
  store i32 %112, ptr %9, align 4
  br label %117

113:                                              ; preds = %33
  %114 = load i32, ptr %9, align 4
  %115 = or i32 %114, 72
  store i32 %115, ptr %9, align 4
  br label %117

116:                                              ; preds = %33
  br label %121

117:                                              ; preds = %113, %110, %101, %91, %87, %77, %68, %44
  %118 = load i64, ptr %10, align 8
  %119 = add i64 %118, 1
  store i64 %119, ptr %10, align 8
  br label %16, !llvm.loop !16

120:                                              ; preds = %16
  br label %121

121:                                              ; preds = %120, %116, %109, %100, %86, %52, %43, %32
  %122 = load i32, ptr %9, align 4
  %123 = load ptr, ptr %7, align 8
  store i32 %122, ptr %123, align 4
  %124 = load i64, ptr %10, align 8
  %125 = load ptr, ptr %8, align 8
  store i64 %124, ptr %125, align 8
  %126 = load i32, ptr %9, align 4
  %127 = and i32 %126, 8
  %128 = icmp ne i32 %127, 0
  %129 = zext i1 %128 to i32
  ret i32 %129
}