; Function Attrs: nofree norecurse nosync nounwind memory(argmem: readwrite) uwtable
define range(i32 0, 2) i32 @png_check_fp_number(ptr nocapture noundef readonly %0, i64 noundef %1, ptr nocapture noundef %2, ptr nocapture noundef %3) local_unnamed_addr #16 {
  %5 = load i32, ptr %2, align 4
  %6 = load i64, ptr %3, align 8
  %7 = icmp ult i64 %6, %1
  br i1 %7, label %.lr.ph, label %._crit_edge

.lr.ph:                                           ; preds = %4, %60
  %.03542 = phi i64 [ %61, %60 ], [ %6, %4 ]
  %.03641 = phi i32 [ %.2, %60 ], [ %5, %4 ]
  %8 = getelementptr inbounds i8, ptr %0, i64 %.03542
  %9 = load i8, ptr %8, align 1
  switch i8 %9, label %._crit_edge [
    i8 43, label %15
    i8 45, label %10
    i8 46, label %11
    i8 48, label %12
    i8 49, label %13
    i8 50, label %13
    i8 51, label %13
    i8 52, label %13
    i8 53, label %13
    i8 54, label %13
    i8 55, label %13
    i8 56, label %13
    i8 57, label %13
    i8 69, label %14
    i8 101, label %14
  ]

10:                                               ; preds = %.lr.ph
  br label %15

11:                                               ; preds = %.lr.ph
  br label %15

12:                                               ; preds = %.lr.ph
  br label %15

13:                                               ; preds = %.lr.ph, %.lr.ph, %.lr.ph, %.lr.ph, %.lr.ph, %.lr.ph, %.lr.ph, %.lr.ph, %.lr.ph
  br label %15

14:                                               ; preds = %.lr.ph, %.lr.ph
  br label %15

15:                                               ; preds = %.lr.ph, %14, %13, %12, %11, %10
  %.0 = phi i32 [ 32, %14 ], [ 264, %13 ], [ 8, %12 ], [ 16, %11 ], [ 132, %10 ], [ 4, %.lr.ph ]
  %16 = and i32 %.03641, 3
  %17 = and i32 %.0, 60
  %18 = or disjoint i32 %17, %16
  switch i32 %18, label %._crit_edge [
    i32 4, label %19
    i32 16, label %23
    i32 8, label %33
    i32 32, label %39
    i32 9, label %45
    i32 33, label %48
    i32 6, label %54
    i32 10, label %58
  ]

19:                                               ; preds = %15
  %20 = and i32 %.03641, 60
  %.not40 = icmp eq i32 %20, 0
  br i1 %.not40, label %21, label %._crit_edge

21:                                               ; preds = %19
  %22 = or i32 %.0, %.03641
  br label %60

23:                                               ; preds = %15
  %24 = and i32 %.03641, 16
  %.not38 = icmp eq i32 %24, 0
  br i1 %.not38, label %25, label %._crit_edge

25:                                               ; preds = %23
  %26 = and i32 %.03641, 8
  %.not39 = icmp eq i32 %26, 0
  br i1 %.not39, label %29, label %27

27:                                               ; preds = %25
  %28 = or i32 %.0, %.03641
  br label %60

29:                                               ; preds = %25
  %30 = and i32 %.03641, 448
  %31 = or i32 %30, %.0
  %32 = or disjoint i32 %31, 1
  br label %60

33:                                               ; preds = %15
  %34 = and i32 %.03641, 16
  %.not37 = icmp eq i32 %34, 0
  %35 = and i32 %.03641, 384
  %36 = or disjoint i32 %35, 17
  %.1 = select i1 %.not37, i32 %.03641, i32 %36
  %37 = or i32 %.1, %.0
  %38 = or i32 %37, 64
  br label %60

39:                                               ; preds = %15
  %40 = and i32 %.03641, 8
  %41 = icmp eq i32 %40, 0
  br i1 %41, label %._crit_edge, label %42

42:                                               ; preds = %39
  %43 = and i32 %.03641, 448
  %44 = or disjoint i32 %43, 2
  br label %60

45:                                               ; preds = %15
  %46 = or i32 %.03641, %.0
  %47 = or i32 %46, 64
  br label %60

48:                                               ; preds = %15
  %49 = and i32 %.03641, 8
  %50 = icmp eq i32 %49, 0
  br i1 %50, label %._crit_edge, label %51

51:                                               ; preds = %48
  %52 = and i32 %.03641, 448
  %53 = or disjoint i32 %52, 2
  br label %60

54:                                               ; preds = %15
  %55 = and i32 %.03641, 60
  %.not = icmp eq i32 %55, 0
  br i1 %.not, label %56, label %._crit_edge

56:                                               ; preds = %54
  %57 = or disjoint i32 %.03641, 4
  br label %60

58:                                               ; preds = %15
  %59 = or i32 %.03641, 72
  br label %60

60:                                               ; preds = %29, %27, %58, %56, %51, %45, %42, %33, %21
  %.2 = phi i32 [ %59, %58 ], [ %57, %56 ], [ %53, %51 ], [ %47, %45 ], [ %44, %42 ], [ %38, %33 ], [ %28, %27 ], [ %32, %29 ], [ %22, %21 ]
  %61 = add i64 %.03542, 1
  %exitcond.not = icmp eq i64 %61, %1
  br i1 %exitcond.not, label %._crit_edge, label %.lr.ph, !llvm.loop !59

._crit_edge:                                      ; preds = %.lr.ph, %19, %23, %39, %48, %54, %15, %60, %4
  %.036.lcssa = phi i32 [ %5, %4 ], [ %.2, %60 ], [ %.03641, %15 ], [ %.03641, %54 ], [ %.03641, %48 ], [ %.03641, %39 ], [ %.03641, %23 ], [ %.03641, %19 ], [ %.03641, %.lr.ph ]
  %.035.lcssa = phi i64 [ %6, %4 ], [ %1, %60 ], [ %.03542, %15 ], [ %.03542, %54 ], [ %.03542, %48 ], [ %.03542, %39 ], [ %.03542, %23 ], [ %.03542, %19 ], [ %.03542, %.lr.ph ]
  store i32 %.036.lcssa, ptr %2, align 4
  store i64 %.035.lcssa, ptr %3, align 8
  %62 = lshr i32 %.036.lcssa, 3
  %.lobit = and i32 %62, 1
  ret i32 %.lobit
}